target datalayout = "e-m:e-p270:32:32-p271:32:32-p272:64:64-i64:64-i128:128-f80:128-n8:16:32:64-S128"
target triple = "x86_64-pc-linux-gnu"

; Function Attrs: nounwind uwtable
define dso_local i32 @PyODict_DelItem(ptr noundef %0, ptr noundef %1) #0 {
  %3 = alloca i32, align 4
  %4 = alloca ptr, align 8
  %5 = alloca ptr, align 8
  %6 = alloca i32, align 4
  %7 = alloca i64, align 8
  %8 = alloca i32, align 4
  store ptr %0, ptr %4, align 8, !tbaa !42
  store ptr %1, ptr %5, align 8, !tbaa !42
  call void @llvm.lifetime.start.p0(i64 4, ptr %6) #7
  call void @llvm.lifetime.start.p0(i64 8, ptr %7) #7
  %9 = load ptr, ptr %5, align 8, !tbaa !42
  %10 = call i64 @PyObject_Hash(ptr noundef %9)
  store i64 %10, ptr %7, align 8, !tbaa !55
  %11 = load i64, ptr %7, align 8, !tbaa !55
  %12 = icmp eq i64 %11, -1
  br i1 %12, label %13, label %14

13:                                               ; preds = %2
  store i32 -1, ptr %3, align 4
  store i32 1, ptr %8, align 4
  br label %27

14:                                               ; preds = %2
  %15 = load ptr, ptr %4, align 8, !tbaa !42
  %16 = load ptr, ptr %5, align 8, !tbaa !42
  %17 = load i64, ptr %7, align 8, !tbaa !55
  %18 = call i32 @_odict_clear_node(ptr noundef %15, ptr noundef null, ptr noundef %16, i64 noundef %17)
  store i32 %18, ptr %6, align 4, !tbaa !43
  %19 = load i32, ptr %6, align 4, !tbaa !43
  %20 = icmp slt i32 %19, 0
  br i1 %20, label %21, label %22

21:                                               ; preds = %14
  store i32 -1, ptr %3, align 4
  store i32 1, ptr %8, align 4
  br label %27

22:                                               ; preds = %14
  %23 = load ptr, ptr %4, align 8, !tbaa !42
  %24 = load ptr, ptr %5, align 8, !tbaa !42
  %25 = load i64, ptr %7, align 8, !tbaa !55
  %26 = call i32 @_PyDict_DelItem_KnownHash(ptr noundef %23, ptr noundef %24, i64 noundef %25)
  store i32 %26, ptr %3, align 4
  store i32 1, ptr %8, align 4
  br label %27

27:                                               ; preds = %22, %21, %13
  call void @llvm.lifetime.end.p0(i64 8, ptr %7) #7
  call void @llvm.lifetime.end.p0(i64 4, ptr %6) #7
  %28 = load i32, ptr %3, align 4
  ret i32 %28
}