; Function Attrs: nounwind uwtable
define dso_local i32 @PyODict_DelItem(ptr noundef %0, ptr noundef %1) local_unnamed_addr #0 {
  %3 = tail call i64 @PyObject_Hash(ptr noundef %1) #8
  %4 = icmp eq i64 %3, -1
  br i1 %4, label %10, label %5

5:                                                ; preds = %2
  %6 = tail call fastcc i32 @_odict_clear_node(ptr noundef %0, ptr noundef null, ptr noundef %1, i64 noundef %3)
  %7 = icmp slt i32 %6, 0
  br i1 %7, label %10, label %8

8:                                                ; preds = %5
  %9 = tail call i32 @_PyDict_DelItem_KnownHash(ptr noundef %0, ptr noundef %1, i64 noundef %3) #8
  br label %10

10:                                               ; preds = %5, %2, %8
  %.0 = phi i32 [ %9, %8 ], [ -1, %2 ], [ -1, %5 ]
  ret i32 %.0
}